; Function Attrs: nounwind uwtable
define internal noalias ptr @xor_dupctx(ptr noundef readonly captures(none) %0) #0 {
  %2 = tail call noalias ptr @CRYPTO_zalloc(i64 noundef 24, ptr noundef nonnull @.str.2, i32 noundef 530) #16
  %3 = icmp eq ptr %2, null
  br i1 %3, label %5, label %4

4:                                                ; preds = %1
  tail call void @llvm.memcpy.p0.p0.i64(ptr noundef nonnull align 8 dereferenceable(24) %2, ptr noundef nonnull align 8 dereferenceable(24) %0, i64 24, i1 false), !tbaa.struct !57
  br label %5

5:                                                ; preds = %1, %4
  ret ptr %2
}